; ModuleID = 'source-C-CXX/13/891.c'
source_filename = "source-C-CXX/13/891.c"
target datalayout = "e-m:e-p270:32:32-p271:32:32-p272:64:64-i64:64-f80:128-n8:16:32:64-S128"
target triple = "x86_64-pc-linux-gnu"

%struct.Stu = type { i32, i32 }

@stu = dso_local global [3 x %struct.Stu] zeroinitializer, align 16
@.str = private unnamed_addr constant [3 x i8] c"%d\00", align 1
@.str.1 = private unnamed_addr constant [7 x i8] c"%d%d%d\00", align 1
@.str.2 = private unnamed_addr constant [7 x i8] c"%d %d\0A\00", align 1

; Function Attrs: mustprogress nofree norecurse nosync nounwind readonly sspstrong uwtable willreturn
define dso_local i32 @compare(i8* nocapture readonly %0, i8* nocapture readonly %1) #0 {
  %3 = getelementptr inbounds i8, i8* %0, i64 4
  %4 = bitcast i8* %3 to i32*
  %5 = load i32, i32* %4, align 4, !tbaa !5
  %6 = getelementptr inbounds i8, i8* %1, i64 4
  %7 = bitcast i8* %6 to i32*
  %8 = load i32, i32* %7, align 4, !tbaa !5
  %9 = icmp sgt i32 %5, %8
  %10 = icmp slt i32 %5, %8
  %11 = zext i1 %10 to i32
  %12 = select i1 %9, i32 -1, i32 %11
  ret i32 %12
}

; Function Attrs: argmemonly mustprogress nofree nosync nounwind willreturn
declare void @llvm.lifetime.start.p0i8(i64 immarg, i8* nocapture) #1

; Function Attrs: argmemonly mustprogress nofree nosync nounwind willreturn
declare void @llvm.lifetime.end.p0i8(i64 immarg, i8* nocapture) #1

; Function Attrs: nofree nounwind sspstrong uwtable
define dso_local void @main() local_unnamed_addr #2 {
  %1 = alloca i32, align 4
  %2 = alloca i32, align 4
  %3 = alloca i32, align 4
  %4 = alloca i32, align 4
  %5 = bitcast i32* %1 to i8*
  call void @llvm.lifetime.start.p0i8(i64 4, i8* nonnull %5) #5
  %6 = bitcast i32* %2 to i8*
  call void @llvm.lifetime.start.p0i8(i64 4, i8* nonnull %6) #5
  %7 = bitcast i32* %3 to i8*
  call void @llvm.lifetime.start.p0i8(i64 4, i8* nonnull %7) #5
  %8 = bitcast i32* %4 to i8*
  call void @llvm.lifetime.start.p0i8(i64 4, i8* nonnull %8) #5
  %9 = call i32 (i8*, ...) @__isoc99_scanf(i8* getelementptr inbounds ([3 x i8], [3 x i8]* @.str, i64 0, i64 0), i32* nonnull %1)
  %10 = load i32, i32* %1, align 4, !tbaa !10
  %11 = icmp slt i32 %10, 1
  br i1 %11, label %12, label %22

12:                                               ; preds = %32, %0
  %13 = load i32, i32* getelementptr inbounds ([3 x %struct.Stu], [3 x %struct.Stu]* @stu, i64 0, i64 0, i32 0), align 16, !tbaa !11
  %14 = load i32, i32* getelementptr inbounds ([3 x %struct.Stu], [3 x %struct.Stu]* @stu, i64 0, i64 0, i32 1), align 4, !tbaa !5
  %15 = call i32 (i8*, ...) @printf(i8* nonnull dereferenceable(1) getelementptr inbounds ([7 x i8], [7 x i8]* @.str.2, i64 0, i64 0), i32 %13, i32 %14)
  %16 = load i32, i32* getelementptr inbounds ([3 x %struct.Stu], [3 x %struct.Stu]* @stu, i64 0, i64 1, i32 0), align 8, !tbaa !11
  %17 = load i32, i32* getelementptr inbounds ([3 x %struct.Stu], [3 x %struct.Stu]* @stu, i64 0, i64 1, i32 1), align 4, !tbaa !5
  %18 = call i32 (i8*, ...) @printf(i8* nonnull dereferenceable(1) getelementptr inbounds ([7 x i8], [7 x i8]* @.str.2, i64 0, i64 0), i32 %16, i32 %17)
  %19 = load i32, i32* getelementptr inbounds ([3 x %struct.Stu], [3 x %struct.Stu]* @stu, i64 0, i64 2, i32 0), align 16, !tbaa !11
  %20 = load i32, i32* getelementptr inbounds ([3 x %struct.Stu], [3 x %struct.Stu]* @stu, i64 0, i64 2, i32 1), align 4, !tbaa !5
  %21 = call i32 (i8*, ...) @printf(i8* nonnull dereferenceable(1) getelementptr inbounds ([7 x i8], [7 x i8]* @.str.2, i64 0, i64 0), i32 %19, i32 %20)
  call void @llvm.lifetime.end.p0i8(i64 4, i8* nonnull %8) #5
  call void @llvm.lifetime.end.p0i8(i64 4, i8* nonnull %7) #5
  call void @llvm.lifetime.end.p0i8(i64 4, i8* nonnull %6) #5
  call void @llvm.lifetime.end.p0i8(i64 4, i8* nonnull %5) #5
  ret void

22:                                               ; preds = %0, %32
  %23 = phi i32 [ %33, %32 ], [ 1, %0 ]
  %24 = call i32 (i8*, ...) @__isoc99_scanf(i8* getelementptr inbounds ([7 x i8], [7 x i8]* @.str.1, i64 0, i64 0), i32* nonnull %2, i32* nonnull %3, i32* nonnull %4)
  %25 = load i32, i32* %3, align 4, !tbaa !10
  %26 = load i32, i32* %4, align 4, !tbaa !10
  %27 = add nsw i32 %26, %25
  %28 = load i32, i32* getelementptr inbounds ([3 x %struct.Stu], [3 x %struct.Stu]* @stu, i64 0, i64 2, i32 1), align 4, !tbaa !5
  %29 = icmp sgt i32 %27, %28
  br i1 %29, label %30, label %32

30:                                               ; preds = %22
  store i32 %27, i32* getelementptr inbounds ([3 x %struct.Stu], [3 x %struct.Stu]* @stu, i64 0, i64 2, i32 1), align 4, !tbaa !5
  %31 = load i32, i32* %2, align 4, !tbaa !10
  store i32 %31, i32* getelementptr inbounds ([3 x %struct.Stu], [3 x %struct.Stu]* @stu, i64 0, i64 2, i32 0), align 16, !tbaa !11
  br label %32

32:                                               ; preds = %30, %22
  call void @qsort(i8* bitcast ([3 x %struct.Stu]* @stu to i8*), i64 3, i64 8, i32 (i8*, i8*)* nonnull @compare) #5
  %33 = add nuw nsw i32 %23, 1
  %34 = load i32, i32* %1, align 4, !tbaa !10
  %35 = icmp slt i32 %23, %34
  br i1 %35, label %22, label %12, !llvm.loop !12
}

; Function Attrs: nofree nounwind
declare noundef i32 @__isoc99_scanf(i8* nocapture noundef readonly, ...) local_unnamed_addr #3

; Function Attrs: nofree
declare void @qsort(i8* noundef, i64 noundef, i64 noundef, i32 (i8*, i8*)* nocapture noundef) local_unnamed_addr #4

; Function Attrs: nofree nounwind
declare noundef i32 @printf(i8* nocapture noundef readonly, ...) local_unnamed_addr #3


!llvm.module.flags = !{!0, !1, !2, !3}
!llvm.ident = !{!4}

!0 = !{i32 1, !"wchar_size", i32 4}
!1 = !{i32 7, !"PIC Level", i32 2}
!2 = !{i32 7, !"PIE Level", i32 2}
!3 = !{i32 7, !"uwtable", i32 1}
!4 = !{!"clang version 13.0.0"}
!5 = !{!6, !7, i64 4}
!6 = !{!"Stu", !7, i64 0, !7, i64 4}
!7 = !{!"int", !8, i64 0}
!8 = !{!"omnipotent char", !9, i64 0}
!9 = !{!"Simple C/C++ TBAA"}
!10 = !{!7, !7, i64 0}
!11 = !{!6, !7, i64 0}
!12 = distinct !{!12, !13}
!13 = !{!"llvm.loop.mustprogress"}
